target datalayout = "e-m:e-p270:32:32-p271:32:32-p272:64:64-i64:64-i128:128-f80:128-n8:16:32:64-S128"
target triple = "x86_64-pc-linux-gnu"

@_ZN6google10g_new_hookE = hidden global ptr null, align 8

; Function Attrs: mustprogress nobuiltin nounwind allocsize(0) uwtable
define dso_local noalias noundef ptr @_ZnwmRKSt9nothrow_t(i64 noundef %0, ptr noundef nonnull align 1 dereferenceable(1) %1) #6 personality ptr @__gxx_personality_v0 {
  %3 = alloca i64, align 8
  %4 = alloca ptr, align 8
  store i64 %0, ptr %3, align 8
  store ptr %1, ptr %4, align 8
  %5 = load ptr, ptr @_ZN6google10g_new_hookE, align 8
  %6 = icmp ne ptr %5, null
  br i1 %6, label %7, label %10

7:                                                ; preds = %2
  %8 = load ptr, ptr @_ZN6google10g_new_hookE, align 8
  invoke void %8()
          to label %9 unwind label %13

9:                                                ; preds = %7
  br label %10

10:                                               ; preds = %9, %2
  %11 = load i64, ptr %3, align 8
  %12 = call noalias ptr @malloc(i64 noundef %11) #19
  ret ptr %12

13:                                               ; preds = %7
  %14 = landingpad { ptr, i32 }
          catch ptr null
  %15 = extractvalue { ptr, i32 } %14, 0
  call void @__clang_call_terminate(ptr %15) #18
  unreachable
}